target datalayout = "e-m:e-p270:32:32-p271:32:32-p272:64:64-i64:64-i128:128-f80:128-n8:16:32:64-S128"
target triple = "x86_64-pc-linux-gnu"

%struct.hf_register_info = type { ptr, %struct._header_field_info }
%struct._header_field_info = type { ptr, ptr, i32, i32, ptr, i64, ptr, i32, i32, i32, i32, ptr }
%struct.enum_val_t = type { ptr, ptr, i32 }
%struct.ws_mempbrk_pattern = type { [256 x i8], i8, <2 x i64> }

@proto_register_sip.raw_hf = internal global [1 x %struct.hf_register_info] [%struct.hf_register_info { ptr @hf_sip_raw_line, %struct._header_field_info { ptr @.str.830, ptr @.str.831, i32 26, i32 0, ptr null, i64 0, ptr null, i32 -1, i32 0, i32 0, i32 -1, ptr null } }], align 16
@proto_register_sip.ett_raw = internal global [1 x ptr] [ptr @ett_raw_text], align 8
@.str.857 = private unnamed_addr constant [4 x i8] c"sip\00", align 1
@.str.872 = private unnamed_addr constant [28 x i8] c"Session Initiation Protocol\00", align 1
@.str.873 = private unnamed_addr constant [4 x i8] c"SIP\00", align 1
@proto_sip = internal global i32 0, align 4
@.str.874 = private unnamed_addr constant [46 x i8] c"Session Initiation Protocol (SIP as raw text)\00", align 1
@.str.875 = private unnamed_addr constant [8 x i8] c"Raw_SIP\00", align 1
@.str.876 = private unnamed_addr constant [8 x i8] c"raw_sip\00", align 1
@proto_raw_sip = internal global i32 0, align 4
@sip_handle = internal global ptr null, align 8
@.str.877 = private unnamed_addr constant [8 x i8] c"sip.tcp\00", align 1
@sip_tcp_handle = internal global ptr null, align 8
@.str.878 = private unnamed_addr constant [9 x i8] c"tls.port\00", align 1
@.str.879 = private unnamed_addr constant [13 x i8] c"SIP TLS Port\00", align 1
@.str.880 = private unnamed_addr constant [20 x i8] c"SIP Server TLS Port\00", align 1
@sip_tls_port = internal global i32 5061, align 4
@.str.881 = private unnamed_addr constant [17 x i8] c"display_raw_text\00", align 1
@.str.882 = private unnamed_addr constant [33 x i8] c"Display raw text for SIP message\00", align 1
@.str.883 = private unnamed_addr constant [102 x i8] c"Specifies that the raw text of the SIP message should be displayed in addition to the dissection tree\00", align 1
@global_sip_raw_text = internal global i8 0, align 1
@.str.884 = private unnamed_addr constant [30 x i8] c"display_raw_text_without_crlf\00", align 1
@.str.885 = private unnamed_addr constant [38 x i8] c"Don't show '\\r\\n' in raw SIP messages\00", align 1
@.str.886 = private unnamed_addr constant [106 x i8] c"If the raw text of the SIP message is displayed, the trailing carriage return and line feed are not shown\00", align 1
@global_sip_raw_text_without_crlf = internal global i8 0, align 1
@.str.887 = private unnamed_addr constant [31 x i8] c"raw_text_body_default_encoding\00", align 1
@.str.888 = private unnamed_addr constant [36 x i8] c"Default charset of raw SIP messages\00", align 1
@.str.889 = private unnamed_addr constant [74 x i8] c"Display sip body of raw text by using this charset. The default is UTF-8.\00", align 1
@global_sip_raw_text_body_default_encoding = internal global i32 106, align 4
@ws_supported_mibenum_vals_character_sets_ev_array = external constant [0 x %struct.enum_val_t], align 8
@.str.890 = private unnamed_addr constant [19 x i8] c"strict_sip_version\00", align 1
@.str.891 = private unnamed_addr constant [43 x i8] c"Enforce strict SIP version check (SIP/2.0)\00", align 1
@.str.892 = private unnamed_addr constant [140 x i8] c"If enabled, only SIP/2.0 traffic will be dissected as SIP. Disable it to allow SIP traffic with a different version to be dissected as SIP.\00", align 1
@strict_sip_version = internal global i8 1, align 1
@.str.893 = private unnamed_addr constant [18 x i8] c"desegment_headers\00", align 1
@.str.894 = private unnamed_addr constant [54 x i8] c"Reassemble SIP headers spanning multiple TCP segments\00", align 1
@.str.895 = private unnamed_addr constant [216 x i8] c"Whether the SIP dissector should reassemble headers of a request spanning multiple TCP segments. To use this option, you must also enable \22Allow subdissectors to reassemble TCP streams\22 in the TCP protocol settings.\00", align 1
@sip_desegment_headers = internal global i8 1, align 1
@.str.896 = private unnamed_addr constant [15 x i8] c"desegment_body\00", align 1
@.str.897 = private unnamed_addr constant [53 x i8] c"Reassemble SIP bodies spanning multiple TCP segments\00", align 1
@sip_desegment_body = internal global i8 1, align 1
@.str.899 = private unnamed_addr constant [23 x i8] c"retrans_the_same_sport\00", align 1
@.str.900 = private unnamed_addr constant [48 x i8] c"Retransmissions always use the same source port\00", align 1
@.str.901 = private unnamed_addr constant [76 x i8] c"Whether retransmissions are detected coming from the same source port only.\00", align 1
@sip_retrans_the_same_sport = internal global i8 1, align 1
@.str.902 = private unnamed_addr constant [18 x i8] c"delay_sdp_changes\00", align 1
@.str.903 = private unnamed_addr constant [37 x i8] c"Delay SDP changes for tracking media\00", align 1
@sip_delay_sdp_changes = internal global i8 0, align 1
@.str.905 = private unnamed_addr constant [22 x i8] c"hide_generatd_call_id\00", align 1
@.str.906 = private unnamed_addr constant [27 x i8] c"Hide the generated Call Id\00", align 1
@.str.907 = private unnamed_addr constant [82 x i8] c"Whether the generated call id should be hidden(not displayed) in the tree or not.\00", align 1
@sip_hide_generatd_call_ids = internal global i8 0, align 1
@.str.908 = private unnamed_addr constant [25 x i8] c"Custom SIP Header Fields\00", align 1
@.str.909 = private unnamed_addr constant [25 x i8] c"custom_sip_header_fields\00", align 1
@sip_custom_header_fields = internal global ptr null, align 8
@sip_custom_num_header_fields = internal global i32 0, align 4
@.str.910 = private unnamed_addr constant [25 x i8] c"Custom SIP header fields\00", align 1
@.str.911 = private unnamed_addr constant [110 x i8] c"A table to define custom SIP header for which fields can be setup and used for filtering/data extraction etc.\00", align 1
@.str.912 = private unnamed_addr constant [23 x i8] c"validate_authorization\00", align 1
@.str.913 = private unnamed_addr constant [27 x i8] c"Validate SIP authorization\00", align 1
@.str.914 = private unnamed_addr constant [51 x i8] c"Validate SIP authorizations with known credentials\00", align 1
@global_sip_validate_authorization = internal global i8 0, align 1
@.str.915 = private unnamed_addr constant [24 x i8] c"SIP authorization users\00", align 1
@.str.916 = private unnamed_addr constant [24 x i8] c"authorization_users_sip\00", align 1
@sip_authorization_users = internal global ptr null, align 8
@sip_authorization_num_users = internal global i32 0, align 4
@.str.917 = private unnamed_addr constant [78 x i8] c"A table to define user credentials used for validating authorization attempts\00", align 1
@.str.918 = private unnamed_addr constant [21 x i8] c"SIP message fallback\00", align 1
@heur_subdissector_list = internal global ptr null, align 8
@sip_tap = internal global i32 -1, align 4
@.str.919 = private unnamed_addr constant [11 x i8] c"sip_follow\00", align 1
@sip_follow_tap = internal global i32 -1, align 4
@.str.920 = private unnamed_addr constant [8 x i8] c"sip.hdr\00", align 1
@.str.921 = private unnamed_addr constant [21 x i8] c"SIP Extension header\00", align 1
@ext_hdr_subdissector_table = internal global ptr null, align 8
@pbrk_comma_semi = internal global %struct.ws_mempbrk_pattern zeroinitializer, align 16
@.str.922 = private unnamed_addr constant [3 x i8] c",;\00", align 1
@pbrk_whitespace = internal global %struct.ws_mempbrk_pattern zeroinitializer, align 16
@.str.923 = private unnamed_addr constant [5 x i8] c" \09\0D\0A\00", align 1
@pbrk_param_end = internal global %struct.ws_mempbrk_pattern zeroinitializer, align 16
@.str.924 = private unnamed_addr constant [7 x i8] c">,;? \0D\00", align 1
@pbrk_param_end_colon_brackets = internal global %struct.ws_mempbrk_pattern zeroinitializer, align 16
@.str.925 = private unnamed_addr constant [10 x i8] c">,;? \0D:[]\00", align 1
@pbrk_header_end_dquote = internal global %struct.ws_mempbrk_pattern zeroinitializer, align 16
@.str.926 = private unnamed_addr constant [6 x i8] c"\0D\0A,;\22\00", align 1
@pbrk_tab_sp_fslash = internal global %struct.ws_mempbrk_pattern zeroinitializer, align 16
@.str.927 = private unnamed_addr constant [4 x i8] c"\09 /\00", align 1
@pbrk_addr_end = internal global %struct.ws_mempbrk_pattern zeroinitializer, align 16
@.str.928 = private unnamed_addr constant [7 x i8] c"[] \09:;\00", align 1
@pbrk_via_param_end = internal global %struct.ws_mempbrk_pattern zeroinitializer, align 16
@.str.929 = private unnamed_addr constant [5 x i8] c"\09;, \00", align 1

; Function Attrs: null_pointer_is_valid sspstrong uwtable
define hidden void @proto_register_sip() #0 {
  %1 = alloca ptr, align 8
  %2 = alloca ptr, align 8
  %3 = alloca ptr, align 8
  %4 = alloca ptr, align 8
  call void @llvm.lifetime.start.p0(i64 8, ptr %1) #18
  call void @llvm.lifetime.start.p0(i64 8, ptr %2) #18
  call void @llvm.lifetime.start.p0(i64 8, ptr %3) #18
  call void @llvm.lifetime.start.p0(i64 8, ptr %4) #18
  %5 = call i32 @proto_register_protocol(ptr noundef @.str.872, ptr noundef @.str.873, ptr noundef @.str.857)
  store i32 %5, ptr @proto_sip, align 4
  %6 = call i32 @proto_register_protocol(ptr noundef @.str.874, ptr noundef @.str.875, ptr noundef @.str.876)
  store i32 %6, ptr @proto_raw_sip, align 4
  %7 = load i32, ptr @proto_sip, align 4
  %8 = call ptr @register_dissector(ptr noundef @.str.857, ptr noundef @dissect_sip, i32 noundef %7)
  store ptr %8, ptr @sip_handle, align 8
  %9 = load i32, ptr @proto_sip, align 4
  %10 = call ptr @register_dissector(ptr noundef @.str.877, ptr noundef @dissect_sip_tcp, i32 noundef %9)
  store ptr %10, ptr @sip_tcp_handle, align 8
  %11 = load i32, ptr @proto_sip, align 4
  call void @proto_register_field_array(i32 noundef %11, ptr noundef @proto_register_sip.hf, i32 noundef 284)
  call void @proto_register_subtree_array(ptr noundef @proto_register_sip.ett, i32 noundef 33)
  %12 = load i32, ptr @proto_sip, align 4
  %13 = call ptr @expert_register_protocol(i32 noundef %12)
  store ptr %13, ptr %2, align 8
  %14 = load ptr, ptr %2, align 8
  call void @expert_register_field_array(ptr noundef %14, ptr noundef @proto_register_sip.ei, i32 noundef 11)
  call void @proto_register_subtree_array(ptr noundef @proto_register_sip.ett_raw, i32 noundef 1)
  %15 = load i32, ptr @proto_raw_sip, align 4
  call void @proto_register_field_array(i32 noundef %15, ptr noundef @proto_register_sip.raw_hf, i32 noundef 1)
  %16 = load i32, ptr @proto_sip, align 4
  %17 = call ptr @prefs_register_protocol(i32 noundef %16, ptr noundef @proto_reg_handoff_sip)
  store ptr %17, ptr %1, align 8
  %18 = load ptr, ptr %1, align 8
  call void @prefs_register_uint_preference(ptr noundef %18, ptr noundef @.str.878, ptr noundef @.str.879, ptr noundef @.str.880, i32 noundef 10, ptr noundef @sip_tls_port)
  %19 = load ptr, ptr %1, align 8
  call void @prefs_register_bool_preference(ptr noundef %19, ptr noundef @.str.881, ptr noundef @.str.882, ptr noundef @.str.883, ptr noundef @global_sip_raw_text)
  %20 = load ptr, ptr %1, align 8
  call void @prefs_register_bool_preference(ptr noundef %20, ptr noundef @.str.884, ptr noundef @.str.885, ptr noundef @.str.886, ptr noundef @global_sip_raw_text_without_crlf)
  %21 = load ptr, ptr %1, align 8
  call void @prefs_register_enum_preference(ptr noundef %21, ptr noundef @.str.887, ptr noundef @.str.888, ptr noundef @.str.889, ptr noundef @global_sip_raw_text_body_default_encoding, ptr noundef @ws_supported_mibenum_vals_character_sets_ev_array, i1 noundef zeroext false)
  %22 = load ptr, ptr %1, align 8
  call void @prefs_register_bool_preference(ptr noundef %22, ptr noundef @.str.890, ptr noundef @.str.891, ptr noundef @.str.892, ptr noundef @strict_sip_version)
  %23 = load ptr, ptr %1, align 8
  call void @prefs_register_bool_preference(ptr noundef %23, ptr noundef @.str.893, ptr noundef @.str.894, ptr noundef @.str.895, ptr noundef @sip_desegment_headers)
  %24 = load ptr, ptr %1, align 8
  call void @prefs_register_bool_preference(ptr noundef %24, ptr noundef @.str.896, ptr noundef @.str.897, ptr noundef @.str.898, ptr noundef @sip_desegment_body)
  %25 = load ptr, ptr %1, align 8
  call void @prefs_register_bool_preference(ptr noundef %25, ptr noundef @.str.899, ptr noundef @.str.900, ptr noundef @.str.901, ptr noundef @sip_retrans_the_same_sport)
  %26 = load ptr, ptr %1, align 8
  call void @prefs_register_bool_preference(ptr noundef %26, ptr noundef @.str.902, ptr noundef @.str.903, ptr noundef @.str.904, ptr noundef @sip_delay_sdp_changes)
  %27 = load ptr, ptr %1, align 8
  call void @prefs_register_bool_preference(ptr noundef %27, ptr noundef @.str.905, ptr noundef @.str.906, ptr noundef @.str.907, ptr noundef @sip_hide_generatd_call_ids)
  %28 = call ptr @uat_new(ptr noundef @.str.908, i64 noundef 16, ptr noundef @.str.909, i1 noundef zeroext true, ptr noundef @sip_custom_header_fields, ptr noundef @sip_custom_num_header_fields, i32 noundef 3, ptr noundef null, ptr noundef @header_fields_copy_cb, ptr noundef @header_fields_update_cb, ptr noundef @header_fields_free_cb, ptr noundef @header_fields_post_update_cb, ptr noundef @header_fields_reset_cb, ptr noundef @proto_register_sip.sip_custom_header_uat_fields)
  store ptr %28, ptr %3, align 8
  %29 = load ptr, ptr %1, align 8
  %30 = load ptr, ptr %3, align 8
  call void @prefs_register_uat_preference(ptr noundef %29, ptr noundef @.str.909, ptr noundef @.str.910, ptr noundef @.str.911, ptr noundef %30)
  %31 = load ptr, ptr %1, align 8
  call void @prefs_register_bool_preference(ptr noundef %31, ptr noundef @.str.912, ptr noundef @.str.913, ptr noundef @.str.914, ptr noundef @global_sip_validate_authorization)
  %32 = call ptr @uat_new(ptr noundef @.str.915, i64 noundef 24, ptr noundef @.str.916, i1 noundef zeroext true, ptr noundef @sip_authorization_users, ptr noundef @sip_authorization_num_users, i32 noundef 3, ptr noundef null, ptr noundef @authorization_users_copy_cb, ptr noundef @authorization_users_update_cb, ptr noundef @authorization_users_free_cb, ptr noundef null, ptr noundef null, ptr noundef @proto_register_sip.sip_authorization_users_uat_fields)
  store ptr %32, ptr %4, align 8
  %33 = load ptr, ptr %1, align 8
  %34 = load ptr, ptr %4, align 8
  call void @prefs_register_uat_preference(ptr noundef %33, ptr noundef @.str.916, ptr noundef @.str.915, ptr noundef @.str.917, ptr noundef %34)
  call void @register_init_routine(ptr noundef @sip_init_protocol)
  call void @register_cleanup_routine(ptr noundef @sip_cleanup_protocol)
  %35 = load i32, ptr @proto_sip, align 4
  %36 = call ptr @register_heur_dissector_list_with_description(ptr noundef @.str.857, ptr noundef @.str.918, i32 noundef %35)
  store ptr %36, ptr @heur_subdissector_list, align 8
  %37 = call i32 @register_tap(ptr noundef @.str.857)
  store i32 %37, ptr @sip_tap, align 4
  %38 = call i32 @register_tap(ptr noundef @.str.919)
  store i32 %38, ptr @sip_follow_tap, align 4
  %39 = load i32, ptr @proto_sip, align 4
  %40 = call ptr @register_dissector_table(ptr noundef @.str.920, ptr noundef @.str.921, i32 noundef %39, i32 noundef 26, i32 noundef 0)
  store ptr %40, ptr @ext_hdr_subdissector_table, align 8
  call void @register_stat_tap_table_ui(ptr noundef @proto_register_sip.sip_stat_table)
  call void @ws_mempbrk_compile(ptr noundef @pbrk_comma_semi, ptr noundef @.str.922)
  call void @ws_mempbrk_compile(ptr noundef @pbrk_whitespace, ptr noundef @.str.923)
  call void @ws_mempbrk_compile(ptr noundef @pbrk_param_end, ptr noundef @.str.924)
  call void @ws_mempbrk_compile(ptr noundef @pbrk_param_end_colon_brackets, ptr noundef @.str.925)
  call void @ws_mempbrk_compile(ptr noundef @pbrk_header_end_dquote, ptr noundef @.str.926)
  call void @ws_mempbrk_compile(ptr noundef @pbrk_tab_sp_fslash, ptr noundef @.str.927)
  call void @ws_mempbrk_compile(ptr noundef @pbrk_addr_end, ptr noundef @.str.928)
  call void @ws_mempbrk_compile(ptr noundef @pbrk_via_param_end, ptr noundef @.str.929)
  %41 = load i32, ptr @proto_sip, align 4
  call void @register_follow_stream(i32 noundef %41, ptr noundef @.str.919, ptr noundef @sip_follow_conv_filter, ptr noundef @sip_follow_index_filter, ptr noundef @sip_follow_address_filter, ptr noundef @udp_port_to_display, ptr noundef @follow_tvb_tap_listener, ptr noundef null, ptr noundef null)
  call void @llvm.lifetime.end.p0(i64 8, ptr %4) #18
  call void @llvm.lifetime.end.p0(i64 8, ptr %3) #18
  call void @llvm.lifetime.end.p0(i64 8, ptr %2) #18
  call void @llvm.lifetime.end.p0(i64 8, ptr %1) #18
  ret void
}