; Function Attrs: null_pointer_is_valid sspstrong uwtable
define hidden void @proto_register_sip() local_unnamed_addr #0 {
  %1 = tail call i32 @proto_register_protocol(ptr noundef nonnull @.str.872, ptr noundef nonnull @.str.873, ptr noundef nonnull @.str.857)
  store i32 %1, ptr @proto_sip, align 4
  %2 = tail call i32 @proto_register_protocol(ptr noundef nonnull @.str.874, ptr noundef nonnull @.str.875, ptr noundef nonnull @.str.876)
  store i32 %2, ptr @proto_raw_sip, align 4
  %3 = load i32, ptr @proto_sip, align 4
  %4 = tail call ptr @register_dissector(ptr noundef nonnull @.str.857, ptr noundef nonnull @dissect_sip, i32 noundef %3)
  store ptr %4, ptr @sip_handle, align 8
  %5 = load i32, ptr @proto_sip, align 4
  %6 = tail call ptr @register_dissector(ptr noundef nonnull @.str.877, ptr noundef nonnull @dissect_sip_tcp, i32 noundef %5)
  store ptr %6, ptr @sip_tcp_handle, align 8
  %7 = load i32, ptr @proto_sip, align 4
  tail call void @proto_register_field_array(i32 noundef %7, ptr noundef nonnull @proto_register_sip.hf, i32 noundef 284)
  tail call void @proto_register_subtree_array(ptr noundef nonnull @proto_register_sip.ett, i32 noundef 33)
  %8 = load i32, ptr @proto_sip, align 4
  %9 = tail call ptr @expert_register_protocol(i32 noundef %8)
  tail call void @expert_register_field_array(ptr noundef %9, ptr noundef nonnull @proto_register_sip.ei, i32 noundef 11)
  tail call void @proto_register_subtree_array(ptr noundef nonnull @proto_register_sip.ett_raw, i32 noundef 1)
  %10 = load i32, ptr @proto_raw_sip, align 4
  tail call void @proto_register_field_array(i32 noundef %10, ptr noundef nonnull @proto_register_sip.raw_hf, i32 noundef 1)
  %11 = load i32, ptr @proto_sip, align 4
  %12 = tail call ptr @prefs_register_protocol(i32 noundef %11, ptr noundef nonnull @proto_reg_handoff_sip)
  tail call void @prefs_register_uint_preference(ptr noundef %12, ptr noundef nonnull @.str.878, ptr noundef nonnull @.str.879, ptr noundef nonnull @.str.880, i32 noundef 10, ptr noundef nonnull @sip_tls_port)
  tail call void @prefs_register_bool_preference(ptr noundef %12, ptr noundef nonnull @.str.881, ptr noundef nonnull @.str.882, ptr noundef nonnull @.str.883, ptr noundef nonnull @global_sip_raw_text)
  tail call void @prefs_register_bool_preference(ptr noundef %12, ptr noundef nonnull @.str.884, ptr noundef nonnull @.str.885, ptr noundef nonnull @.str.886, ptr noundef nonnull @global_sip_raw_text_without_crlf)
  tail call void @prefs_register_enum_preference(ptr noundef %12, ptr noundef nonnull @.str.887, ptr noundef nonnull @.str.888, ptr noundef nonnull @.str.889, ptr noundef nonnull @global_sip_raw_text_body_default_encoding, ptr noundef nonnull @ws_supported_mibenum_vals_character_sets_ev_array, i1 noundef zeroext false)
  tail call void @prefs_register_bool_preference(ptr noundef %12, ptr noundef nonnull @.str.890, ptr noundef nonnull @.str.891, ptr noundef nonnull @.str.892, ptr noundef nonnull @strict_sip_version)
  tail call void @prefs_register_bool_preference(ptr noundef %12, ptr noundef nonnull @.str.893, ptr noundef nonnull @.str.894, ptr noundef nonnull @.str.895, ptr noundef nonnull @sip_desegment_headers)
  tail call void @prefs_register_bool_preference(ptr noundef %12, ptr noundef nonnull @.str.896, ptr noundef nonnull @.str.897, ptr noundef nonnull @.str.898, ptr noundef nonnull @sip_desegment_body)
  tail call void @prefs_register_bool_preference(ptr noundef %12, ptr noundef nonnull @.str.899, ptr noundef nonnull @.str.900, ptr noundef nonnull @.str.901, ptr noundef nonnull @sip_retrans_the_same_sport)
  tail call void @prefs_register_bool_preference(ptr noundef %12, ptr noundef nonnull @.str.902, ptr noundef nonnull @.str.903, ptr noundef nonnull @.str.904, ptr noundef nonnull @sip_delay_sdp_changes)
  tail call void @prefs_register_bool_preference(ptr noundef %12, ptr noundef nonnull @.str.905, ptr noundef nonnull @.str.906, ptr noundef nonnull @.str.907, ptr noundef nonnull @sip_hide_generatd_call_ids)
  %13 = tail call ptr @uat_new(ptr noundef nonnull @.str.908, i64 noundef 16, ptr noundef nonnull @.str.909, i1 noundef zeroext true, ptr noundef nonnull @sip_custom_header_fields, ptr noundef nonnull @sip_custom_num_header_fields, i32 noundef 3, ptr noundef null, ptr noundef nonnull @header_fields_copy_cb, ptr noundef nonnull @header_fields_update_cb, ptr noundef nonnull @header_fields_free_cb, ptr noundef nonnull @header_fields_post_update_cb, ptr noundef nonnull @header_fields_reset_cb, ptr noundef nonnull @proto_register_sip.sip_custom_header_uat_fields)
  tail call void @prefs_register_uat_preference(ptr noundef %12, ptr noundef nonnull @.str.909, ptr noundef nonnull @.str.910, ptr noundef nonnull @.str.911, ptr noundef %13)
  tail call void @prefs_register_bool_preference(ptr noundef %12, ptr noundef nonnull @.str.912, ptr noundef nonnull @.str.913, ptr noundef nonnull @.str.914, ptr noundef nonnull @global_sip_validate_authorization)
  %14 = tail call ptr @uat_new(ptr noundef nonnull @.str.915, i64 noundef 24, ptr noundef nonnull @.str.916, i1 noundef zeroext true, ptr noundef nonnull @sip_authorization_users, ptr noundef nonnull @sip_authorization_num_users, i32 noundef 3, ptr noundef null, ptr noundef nonnull @authorization_users_copy_cb, ptr noundef nonnull @authorization_users_update_cb, ptr noundef nonnull @authorization_users_free_cb, ptr noundef null, ptr noundef null, ptr noundef nonnull @proto_register_sip.sip_authorization_users_uat_fields)
  tail call void @prefs_register_uat_preference(ptr noundef %12, ptr noundef nonnull @.str.916, ptr noundef nonnull @.str.915, ptr noundef nonnull @.str.917, ptr noundef %14)
  tail call void @register_init_routine(ptr noundef nonnull @sip_init_protocol)
  tail call void @register_cleanup_routine(ptr noundef nonnull @sip_cleanup_protocol)
  %15 = load i32, ptr @proto_sip, align 4
  %16 = tail call ptr @register_heur_dissector_list_with_description(ptr noundef nonnull @.str.857, ptr noundef nonnull @.str.918, i32 noundef %15)
  store ptr %16, ptr @heur_subdissector_list, align 8
  %17 = tail call i32 @register_tap(ptr noundef nonnull @.str.857)
  store i32 %17, ptr @sip_tap, align 4
  %18 = tail call i32 @register_tap(ptr noundef nonnull @.str.919)
  store i32 %18, ptr @sip_follow_tap, align 4
  %19 = load i32, ptr @proto_sip, align 4
  %20 = tail call ptr @register_dissector_table(ptr noundef nonnull @.str.920, ptr noundef nonnull @.str.921, i32 noundef %19, i32 noundef 26, i32 noundef 0)
  store ptr %20, ptr @ext_hdr_subdissector_table, align 8
  tail call void @register_stat_tap_table_ui(ptr noundef nonnull @proto_register_sip.sip_stat_table)
  tail call void @ws_mempbrk_compile(ptr noundef nonnull @pbrk_comma_semi, ptr noundef nonnull @.str.922)
  tail call void @ws_mempbrk_compile(ptr noundef nonnull @pbrk_whitespace, ptr noundef nonnull @.str.923)
  tail call void @ws_mempbrk_compile(ptr noundef nonnull @pbrk_param_end, ptr noundef nonnull @.str.924)
  tail call void @ws_mempbrk_compile(ptr noundef nonnull @pbrk_param_end_colon_brackets, ptr noundef nonnull @.str.925)
  tail call void @ws_mempbrk_compile(ptr noundef nonnull @pbrk_header_end_dquote, ptr noundef nonnull @.str.926)
  tail call void @ws_mempbrk_compile(ptr noundef nonnull @pbrk_tab_sp_fslash, ptr noundef nonnull @.str.927)
  tail call void @ws_mempbrk_compile(ptr noundef nonnull @pbrk_addr_end, ptr noundef nonnull @.str.928)
  tail call void @ws_mempbrk_compile(ptr noundef nonnull @pbrk_via_param_end, ptr noundef nonnull @.str.929)
  %21 = load i32, ptr @proto_sip, align 4
  tail call void @register_follow_stream(i32 noundef %21, ptr noundef nonnull @.str.919, ptr noundef nonnull @sip_follow_conv_filter, ptr noundef nonnull @sip_follow_index_filter, ptr noundef nonnull @sip_follow_address_filter, ptr noundef nonnull @udp_port_to_display, ptr noundef nonnull @follow_tvb_tap_listener, ptr noundef null, ptr noundef null)
  ret void
}